target datalayout = "e-m:e-p270:32:32-p271:32:32-p272:64:64-i64:64-i128:128-f80:128-n8:16:32:64-S128"
target triple = "x86_64-unknown-linux-gnu"

%"class.llvh::StringRef" = type { ptr, i64 }
%"struct.hermes::Segment" = type { i64, i64 }
%"class.llvh::raw_ostream" = type <{ ptr, ptr, ptr, ptr, i32, [4 x i8] }>

@.str.2 = private unnamed_addr constant [8 x i8] c"[empty]\00", align 1
@.str.3 = private unnamed_addr constant [2 x i8] c"[\00", align 1
@.str.4 = private unnamed_addr constant [4 x i8] c"...\00", align 1
@.str.5 = private unnamed_addr constant [3 x i8] c") \00", align 1

; Function Attrs: mustprogress nounwind uwtable
define linkonce_odr hidden noundef nonnull align 8 dereferenceable(36) ptr @_ZN4llvh11raw_ostreamlsENS_9StringRefE(ptr noundef nonnull align 8 dereferenceable(36) %this, ptr %Str.coerce0, i64 %Str.coerce1) #0 comdat align 2 {
entry:
  %this.addr.i11 = alloca ptr, align 8
  %this.addr.i9 = alloca ptr, align 8
  %this.addr.i = alloca ptr, align 8
  %retval = alloca ptr, align 8
  %Str = alloca %"class.llvh::StringRef", align 8
  %this.addr = alloca ptr, align 8
  %Size = alloca i64, align 8
  %0 = getelementptr inbounds { ptr, i64 }, ptr %Str, i32 0, i32 0
  store ptr %Str.coerce0, ptr %0, align 8
  %1 = getelementptr inbounds { ptr, i64 }, ptr %Str, i32 0, i32 1
  store i64 %Str.coerce1, ptr %1, align 8
  store ptr %this, ptr %this.addr, align 8
  %this1 = load ptr, ptr %this.addr, align 8
  store ptr %Str, ptr %this.addr.i, align 8
  %this1.i = load ptr, ptr %this.addr.i, align 8
  %Length.i = getelementptr inbounds %"class.llvh::StringRef", ptr %this1.i, i32 0, i32 1
  %2 = load i64, ptr %Length.i, align 8
  store i64 %2, ptr %Size, align 8
  %3 = load i64, ptr %Size, align 8
  %OutBufEnd = getelementptr inbounds %"class.llvh::raw_ostream", ptr %this1, i32 0, i32 2
  %4 = load ptr, ptr %OutBufEnd, align 8
  %OutBufCur = getelementptr inbounds %"class.llvh::raw_ostream", ptr %this1, i32 0, i32 3
  %5 = load ptr, ptr %OutBufCur, align 8
  %sub.ptr.lhs.cast = ptrtoint ptr %4 to i64
  %sub.ptr.rhs.cast = ptrtoint ptr %5 to i64
  %sub.ptr.sub = sub i64 %sub.ptr.lhs.cast, %sub.ptr.rhs.cast
  %cmp = icmp ugt i64 %3, %sub.ptr.sub
  br i1 %cmp, label %if.then, label %if.end

if.then:                                          ; preds = %entry
  store ptr %Str, ptr %this.addr.i11, align 8
  %this1.i12 = load ptr, ptr %this.addr.i11, align 8
  %6 = load ptr, ptr %this1.i12, align 8
  %7 = load i64, ptr %Size, align 8
  %call3 = call noundef nonnull align 8 dereferenceable(36) ptr @_ZN4llvh11raw_ostream5writeEPKcm(ptr noundef nonnull align 8 dereferenceable(36) %this1, ptr noundef %6, i64 noundef %7)
  store ptr %call3, ptr %retval, align 8
  br label %return

if.end:                                           ; preds = %entry
  %8 = load i64, ptr %Size, align 8
  %tobool = icmp ne i64 %8, 0
  br i1 %tobool, label %if.then4, label %if.end8

if.then4:                                         ; preds = %if.end
  %OutBufCur5 = getelementptr inbounds %"class.llvh::raw_ostream", ptr %this1, i32 0, i32 3
  %9 = load ptr, ptr %OutBufCur5, align 8
  store ptr %Str, ptr %this.addr.i9, align 8
  %this1.i10 = load ptr, ptr %this.addr.i9, align 8
  %10 = load ptr, ptr %this1.i10, align 8
  %11 = load i64, ptr %Size, align 8
  call void @llvm.memcpy.p0.p0.i64(ptr align 1 %9, ptr align 1 %10, i64 %11, i1 false)
  %12 = load i64, ptr %Size, align 8
  %OutBufCur7 = getelementptr inbounds %"class.llvh::raw_ostream", ptr %this1, i32 0, i32 3
  %13 = load ptr, ptr %OutBufCur7, align 8
  %add.ptr = getelementptr inbounds i8, ptr %13, i64 %12
  store ptr %add.ptr, ptr %OutBufCur7, align 8
  br label %if.end8

if.end8:                                          ; preds = %if.then4, %if.end
  store ptr %this1, ptr %retval, align 8
  br label %return

return:                                           ; preds = %if.end8, %if.then
  %14 = load ptr, ptr %retval, align 8
  ret ptr %14
}

; Function Attrs: mustprogress nounwind uwtable
define linkonce_odr hidden noundef i64 @_ZNK6hermes7Segment4sizeEv(ptr noundef nonnull align 8 dereferenceable(16) %this) #0 comdat align 2 {
entry:
  %this.addr = alloca ptr, align 8
  store ptr %this, ptr %this.addr, align 8
  %this1 = load ptr, ptr %this.addr, align 8
  %end_ = getelementptr inbounds %"struct.hermes::Segment", ptr %this1, i32 0, i32 1
  %0 = load i64, ptr %end_, align 8
  %start_ = getelementptr inbounds %"struct.hermes::Segment", ptr %this1, i32 0, i32 0
  %1 = load i64, ptr %start_, align 8
  %sub = sub i64 %0, %1
  ret i64 %sub
}

; Function Attrs: mustprogress nounwind uwtable
define linkonce_odr hidden noundef nonnull align 8 dereferenceable(36) ptr @_ZN4llvh11raw_ostreamlsEPKc(ptr noundef nonnull align 8 dereferenceable(36) %this, ptr noundef %Str) #0 comdat align 2 {
entry:
  %this.addr.i = alloca ptr, align 8
  %Str.addr.i = alloca ptr, align 8
  %this.addr = alloca ptr, align 8
  %Str.addr = alloca ptr, align 8
  %agg.tmp = alloca %"class.llvh::StringRef", align 8
  store ptr %this, ptr %this.addr, align 8
  store ptr %Str, ptr %Str.addr, align 8
  %this1 = load ptr, ptr %this.addr, align 8
  %0 = load ptr, ptr %Str.addr, align 8
  store ptr %agg.tmp, ptr %this.addr.i, align 8
  store ptr %0, ptr %Str.addr.i, align 8
  %this1.i = load ptr, ptr %this.addr.i, align 8
  %1 = load ptr, ptr %Str.addr.i, align 8
  store ptr %1, ptr %this1.i, align 8
  %Length.i = getelementptr inbounds %"class.llvh::StringRef", ptr %this1.i, i32 0, i32 1
  %2 = load ptr, ptr %Str.addr.i, align 8
  %tobool.i = icmp ne ptr %2, null
  br i1 %tobool.i, label %cond.true.i, label %cond.false.i

cond.true.i:                                      ; preds = %entry
  %3 = load ptr, ptr %Str.addr.i, align 8
  %call.i = call i64 @strlen(ptr noundef %3) #11
  br label %_ZN4llvh9StringRefC2EPKc.exit

cond.false.i:                                     ; preds = %entry
  br label %_ZN4llvh9StringRefC2EPKc.exit

_ZN4llvh9StringRefC2EPKc.exit:                    ; preds = %cond.false.i, %cond.true.i
  %cond.i = phi i64 [ %call.i, %cond.true.i ], [ 0, %cond.false.i ]
  store i64 %cond.i, ptr %Length.i, align 8
  %4 = getelementptr inbounds { ptr, i64 }, ptr %agg.tmp, i32 0, i32 0
  %5 = load ptr, ptr %4, align 8
  %6 = getelementptr inbounds { ptr, i64 }, ptr %agg.tmp, i32 0, i32 1
  %7 = load i64, ptr %6, align 8
  %call = call noundef nonnull align 8 dereferenceable(36) ptr @_ZN4llvh11raw_ostreamlsENS_9StringRefE(ptr noundef nonnull align 8 dereferenceable(36) %this1, ptr %5, i64 %7)
  ret ptr %call
}

; Function Attrs: mustprogress nounwind uwtable
define linkonce_odr hidden noundef i64 @_ZNK6hermes7Segment5emptyEv(ptr noundef nonnull align 8 dereferenceable(16) %this) #0 comdat align 2 {
entry:
  %this.addr = alloca ptr, align 8
  store ptr %this, ptr %this.addr, align 8
  %this1 = load ptr, ptr %this.addr, align 8
  %call = call noundef i64 @_ZNK6hermes7Segment4sizeEv(ptr noundef nonnull align 8 dereferenceable(16) %this1)
  %cmp = icmp eq i64 %call, 0
  %conv = zext i1 %cmp to i64
  ret i64 %conv
}

; Function Attrs: mustprogress nounwind uwtable
define hidden noundef nonnull align 8 dereferenceable(36) ptr @_ZN4llvhlsERNS_11raw_ostreamERKN6hermes7SegmentE(ptr noundef nonnull align 8 dereferenceable(36) %OS, ptr noundef nonnull align 8 dereferenceable(16) %segment) #0 {
entry:
  %retval = alloca ptr, align 8
  %OS.addr = alloca ptr, align 8
  %segment.addr = alloca ptr, align 8
  store ptr %OS, ptr %OS.addr, align 8
  store ptr %segment, ptr %segment.addr, align 8
  %0 = load ptr, ptr %segment.addr, align 8
  %call = call noundef i64 @_ZNK6hermes7Segment5emptyEv(ptr noundef nonnull align 8 dereferenceable(16) %0)
  %tobool = icmp ne i64 %call, 0
  br i1 %tobool, label %if.then, label %if.end

if.then:                                          ; preds = %entry
  %1 = load ptr, ptr %OS.addr, align 8
  %call1 = call noundef nonnull align 8 dereferenceable(36) ptr @_ZN4llvh11raw_ostreamlsEPKc(ptr noundef nonnull align 8 dereferenceable(36) %1, ptr noundef @.str.2)
  %2 = load ptr, ptr %OS.addr, align 8
  store ptr %2, ptr %retval, align 8
  br label %return

if.end:                                           ; preds = %entry
  %3 = load ptr, ptr %OS.addr, align 8
  %call2 = call noundef nonnull align 8 dereferenceable(36) ptr @_ZN4llvh11raw_ostreamlsEPKc(ptr noundef nonnull align 8 dereferenceable(36) %3, ptr noundef @.str.3)
  %4 = load ptr, ptr %segment.addr, align 8
  %start_ = getelementptr inbounds %"struct.hermes::Segment", ptr %4, i32 0, i32 0
  %5 = load i64, ptr %start_, align 8
  %call3 = call noundef nonnull align 8 dereferenceable(36) ptr @_ZN4llvh11raw_ostreamlsEm(ptr noundef nonnull align 8 dereferenceable(36) %call2, i64 noundef %5)
  %call4 = call noundef nonnull align 8 dereferenceable(36) ptr @_ZN4llvh11raw_ostreamlsEPKc(ptr noundef nonnull align 8 dereferenceable(36) %call3, ptr noundef @.str.4)
  %6 = load ptr, ptr %segment.addr, align 8
  %end_ = getelementptr inbounds %"struct.hermes::Segment", ptr %6, i32 0, i32 1
  %7 = load i64, ptr %end_, align 8
  %call5 = call noundef nonnull align 8 dereferenceable(36) ptr @_ZN4llvh11raw_ostreamlsEm(ptr noundef nonnull align 8 dereferenceable(36) %call4, i64 noundef %7)
  %call6 = call noundef nonnull align 8 dereferenceable(36) ptr @_ZN4llvh11raw_ostreamlsEPKc(ptr noundef nonnull align 8 dereferenceable(36) %call5, ptr noundef @.str.5)
  %8 = load ptr, ptr %OS.addr, align 8
  store ptr %8, ptr %retval, align 8
  br label %return

return:                                           ; preds = %if.end, %if.then
  %9 = load ptr, ptr %retval, align 8
  ret ptr %9
}