; Function Attrs: mustprogress nounwind uwtable
define hidden noundef nonnull align 8 dereferenceable(36) ptr @_ZN4llvhlsERNS_11raw_ostreamERKN6hermes7SegmentE(ptr noundef nonnull returned align 8 dereferenceable(36) %OS, ptr nocapture noundef nonnull readonly align 8 dereferenceable(16) %segment) local_unnamed_addr #0 {
entry:
  %end_.i.i = getelementptr inbounds i8, ptr %segment, i64 8
  %0 = load i64, ptr %end_.i.i, align 8
  %1 = load i64, ptr %segment, align 8
  %cmp.i.not = icmp eq i64 %0, %1
  %OutBufEnd.i5.i = getelementptr inbounds i8, ptr %OS, i64 16
  %2 = load ptr, ptr %OutBufEnd.i5.i, align 8
  %OutBufCur.i6.i = getelementptr inbounds i8, ptr %OS, i64 24
  %3 = load ptr, ptr %OutBufCur.i6.i, align 8
  br i1 %cmp.i.not, label %if.then, label %if.end

if.then:                                          ; preds = %entry
  %sub.ptr.lhs.cast.i7.i = ptrtoint ptr %2 to i64
  %sub.ptr.rhs.cast.i8.i = ptrtoint ptr %3 to i64
  %sub.ptr.sub.i9.i = sub i64 %sub.ptr.lhs.cast.i7.i, %sub.ptr.rhs.cast.i8.i
  %cmp.i.i = icmp ult i64 %sub.ptr.sub.i9.i, 7
  br i1 %cmp.i.i, label %if.then.i.i, label %if.then4.i.i

if.then.i.i:                                      ; preds = %if.then
  %call3.i.i = tail call noundef nonnull align 8 dereferenceable(36) ptr @_ZN4llvh11raw_ostream5writeEPKcm(ptr noundef nonnull align 8 dereferenceable(36) %OS, ptr noundef nonnull @.str.2, i64 noundef 7) #18
  br label %return

if.then4.i.i:                                     ; preds = %if.then
  tail call void @llvm.memcpy.p0.p0.i64(ptr noundef nonnull align 1 dereferenceable(7) %3, ptr noundef nonnull align 1 dereferenceable(7) @.str.2, i64 7, i1 false)
  %4 = load ptr, ptr %OutBufCur.i6.i, align 8
  %add.ptr.i.i = getelementptr inbounds i8, ptr %4, i64 7
  store ptr %add.ptr.i.i, ptr %OutBufCur.i6.i, align 8
  br label %return

if.end:                                           ; preds = %entry
  %cmp.i.i12 = icmp eq ptr %2, %3
  br i1 %cmp.i.i12, label %if.then.i.i18, label %if.then4.i.i15

if.then.i.i18:                                    ; preds = %if.end
  %call3.i.i19 = tail call noundef nonnull align 8 dereferenceable(36) ptr @_ZN4llvh11raw_ostream5writeEPKcm(ptr noundef nonnull align 8 dereferenceable(36) %OS, ptr noundef nonnull @.str.3, i64 noundef 1) #18
  br label %_ZN4llvh11raw_ostreamlsEPKc.exit20

if.then4.i.i15:                                   ; preds = %if.end
  store i8 91, ptr %3, align 1
  %5 = load ptr, ptr %OutBufCur.i6.i, align 8
  %add.ptr.i.i16 = getelementptr inbounds i8, ptr %5, i64 1
  store ptr %add.ptr.i.i16, ptr %OutBufCur.i6.i, align 8
  br label %_ZN4llvh11raw_ostreamlsEPKc.exit20

_ZN4llvh11raw_ostreamlsEPKc.exit20:               ; preds = %if.then.i.i18, %if.then4.i.i15
  %phi.call.i17 = phi ptr [ %call3.i.i19, %if.then.i.i18 ], [ %OS, %if.then4.i.i15 ]
  %6 = load i64, ptr %segment, align 8
  %call3 = tail call noundef nonnull align 8 dereferenceable(36) ptr @_ZN4llvh11raw_ostreamlsEm(ptr noundef nonnull align 8 dereferenceable(36) %phi.call.i17, i64 noundef %6) #18
  %OutBufEnd.i5.i22 = getelementptr inbounds i8, ptr %call3, i64 16
  %7 = load ptr, ptr %OutBufEnd.i5.i22, align 8
  %OutBufCur.i6.i23 = getelementptr inbounds i8, ptr %call3, i64 24
  %8 = load ptr, ptr %OutBufCur.i6.i23, align 8
  %sub.ptr.lhs.cast.i7.i24 = ptrtoint ptr %7 to i64
  %sub.ptr.rhs.cast.i8.i25 = ptrtoint ptr %8 to i64
  %sub.ptr.sub.i9.i26 = sub i64 %sub.ptr.lhs.cast.i7.i24, %sub.ptr.rhs.cast.i8.i25
  %cmp.i.i27 = icmp ult i64 %sub.ptr.sub.i9.i26, 3
  br i1 %cmp.i.i27, label %if.then.i.i33, label %if.then4.i.i30

if.then.i.i33:                                    ; preds = %_ZN4llvh11raw_ostreamlsEPKc.exit20
  %call3.i.i34 = tail call noundef nonnull align 8 dereferenceable(36) ptr @_ZN4llvh11raw_ostream5writeEPKcm(ptr noundef nonnull align 8 dereferenceable(36) %call3, ptr noundef nonnull @.str.4, i64 noundef 3) #18
  br label %_ZN4llvh11raw_ostreamlsEPKc.exit35

if.then4.i.i30:                                   ; preds = %_ZN4llvh11raw_ostreamlsEPKc.exit20
  tail call void @llvm.memcpy.p0.p0.i64(ptr noundef nonnull align 1 dereferenceable(3) %8, ptr noundef nonnull align 1 dereferenceable(3) @.str.4, i64 3, i1 false)
  %9 = load ptr, ptr %OutBufCur.i6.i23, align 8
  %add.ptr.i.i31 = getelementptr inbounds i8, ptr %9, i64 3
  store ptr %add.ptr.i.i31, ptr %OutBufCur.i6.i23, align 8
  br label %_ZN4llvh11raw_ostreamlsEPKc.exit35

_ZN4llvh11raw_ostreamlsEPKc.exit35:               ; preds = %if.then.i.i33, %if.then4.i.i30
  %phi.call.i32 = phi ptr [ %call3.i.i34, %if.then.i.i33 ], [ %call3, %if.then4.i.i30 ]
  %10 = load i64, ptr %end_.i.i, align 8
  %call5 = tail call noundef nonnull align 8 dereferenceable(36) ptr @_ZN4llvh11raw_ostreamlsEm(ptr noundef nonnull align 8 dereferenceable(36) %phi.call.i32, i64 noundef %10) #18
  %OutBufEnd.i5.i37 = getelementptr inbounds i8, ptr %call5, i64 16
  %11 = load ptr, ptr %OutBufEnd.i5.i37, align 8
  %OutBufCur.i6.i38 = getelementptr inbounds i8, ptr %call5, i64 24
  %12 = load ptr, ptr %OutBufCur.i6.i38, align 8
  %sub.ptr.lhs.cast.i7.i39 = ptrtoint ptr %11 to i64
  %sub.ptr.rhs.cast.i8.i40 = ptrtoint ptr %12 to i64
  %sub.ptr.sub.i9.i41 = sub i64 %sub.ptr.lhs.cast.i7.i39, %sub.ptr.rhs.cast.i8.i40
  %cmp.i.i42 = icmp ult i64 %sub.ptr.sub.i9.i41, 2
  br i1 %cmp.i.i42, label %if.then.i.i48, label %if.then4.i.i45

if.then.i.i48:                                    ; preds = %_ZN4llvh11raw_ostreamlsEPKc.exit35
  %call3.i.i49 = tail call noundef nonnull align 8 dereferenceable(36) ptr @_ZN4llvh11raw_ostream5writeEPKcm(ptr noundef nonnull align 8 dereferenceable(36) %call5, ptr noundef nonnull @.str.5, i64 noundef 2) #18
  br label %return

if.then4.i.i45:                                   ; preds = %_ZN4llvh11raw_ostreamlsEPKc.exit35
  store i16 8233, ptr %12, align 1
  %13 = load ptr, ptr %OutBufCur.i6.i38, align 8
  %add.ptr.i.i46 = getelementptr inbounds i8, ptr %13, i64 2
  store ptr %add.ptr.i.i46, ptr %OutBufCur.i6.i38, align 8
  br label %return

return:                                           ; preds = %if.then4.i.i45, %if.then.i.i48, %if.then4.i.i, %if.then.i.i
  ret ptr %OS
}